; Function Attrs: mustprogress nofree norecurse nosync nounwind willreturn memory(readwrite, inaccessiblemem: none) uwtable
define internal void @"_ZNSt17_Function_handlerIFvP15_heaptypeobjectEZ32test_submodule_custom_type_setupRN8pybind117module_EE3$_0E9_M_invokeERKSt9_Any_dataOS1_"(ptr nocapture nonnull readnone align 8 %0, ptr nocapture noundef nonnull readonly align 8 dereferenceable(8) %1) #17 align 2 {
  %.val = load ptr, ptr %1, align 8
  %3 = getelementptr inbounds i8, ptr %.val, i64 168
  %4 = load i64, ptr %3, align 8
  %5 = or i64 %4, 16384
  store i64 %5, ptr %3, align 8
  %6 = getelementptr inbounds i8, ptr %.val, i64 184
  store ptr @"_ZZZ32test_submodule_custom_type_setupRN8pybind117module_EENK3$_0clEP15_heaptypeobjectENUlP7_objectPFiS6_PvES7_E_8__invokeES6_S9_S7_", ptr %6, align 8
  %7 = getelementptr inbounds i8, ptr %.val, i64 192
  store ptr @"_ZZZ32test_submodule_custom_type_setupRN8pybind117module_EENK3$_0clEP15_heaptypeobjectENUlP7_objectE_8__invokeES6_", ptr %7, align 8
  ret void
}